target datalayout = "e-m:e-p270:32:32-p271:32:32-p272:64:64-i64:64-i128:128-f80:128-n8:16:32:64-S128"
target triple = "x86_64-pc-linux-gnu"

%"struct.cv::Ptr.13" = type { %"class.std::shared_ptr.14" }
%"class.std::shared_ptr.14" = type { %"class.std::__shared_ptr.15" }
%"class.std::__shared_ptr.15" = type { ptr, %"class.std::__shared_count" }
%"class.std::__shared_count" = type { ptr }
%"class.std::__cxx11::basic_string" = type { %"struct.std::__cxx11::basic_string<char>::_Alloc_hider", i64, %union.anon }
%"struct.std::__cxx11::basic_string<char>::_Alloc_hider" = type { ptr }
%union.anon = type { i64, [8 x i8] }
%"class.std::vector" = type { %"struct.std::_Vector_base" }
%"struct.std::_Vector_base" = type { %"struct.std::_Vector_base<cv::Mat, std::allocator<cv::Mat>>::_Vector_impl" }
%"struct.std::_Vector_base<cv::Mat, std::allocator<cv::Mat>>::_Vector_impl" = type { %"struct.std::_Vector_base<cv::Mat, std::allocator<cv::Mat>>::_Vector_impl_data" }
%"struct.std::_Vector_base<cv::Mat, std::allocator<cv::Mat>>::_Vector_impl_data" = type { ptr, ptr, ptr }
%"class.cv::ImageCollection" = type { %"struct.cv::Ptr.25" }
%"struct.cv::Ptr.25" = type { %"class.std::shared_ptr.26" }
%"class.std::shared_ptr.26" = type { %"class.std::__shared_ptr.27" }
%"class.std::__shared_ptr.27" = type { ptr, %"class.std::__shared_count" }
%"class.cv::ImageCollection::Impl" = type { %"class.std::__cxx11::basic_string", i32, i64, i32, i32, i32, %"class.std::vector", %"struct.cv::Ptr.13" }
%"struct.cv::ImageCollection::iterator" = type <{ ptr, i32, [4 x i8] }>

; Function Attrs: mustprogress nounwind uwtable
define linkonce_odr hidden noundef ptr @_ZNKSt12__shared_ptrIN2cv16BaseImageDecoderELN9__gnu_cxx12_Lock_policyE2EE3getEv(ptr noundef nonnull align 8 dereferenceable(16) %0) #9 comdat align 2 {
  %2 = alloca ptr, align 8
  store ptr %0, ptr %2, align 8, !tbaa !130
  %3 = load ptr, ptr %2, align 8
  %4 = getelementptr inbounds nuw %"class.std::__shared_ptr.15", ptr %3, i32 0, i32 0
  %5 = load ptr, ptr %4, align 8, !tbaa !146
  ret ptr %5
}

; Function Attrs: mustprogress nounwind uwtable
define linkonce_odr hidden noundef ptr @_ZNK2cv3PtrINS_16BaseImageDecoderEEptEv(ptr noundef nonnull align 8 dereferenceable(16) %0) #9 comdat align 2 {
  %2 = alloca ptr, align 8
  store ptr %0, ptr %2, align 8, !tbaa !128
  %3 = load ptr, ptr %2, align 8
  %4 = call noundef ptr @_ZNKSt12__shared_ptrIN2cv16BaseImageDecoderELN9__gnu_cxx12_Lock_policyE2EE3getEv(ptr noundef nonnull align 8 dereferenceable(16) %3) #3
  ret ptr %4
}

; Function Attrs: mustprogress nounwind uwtable
define linkonce_odr hidden noundef ptr @_ZNKSt12__shared_ptrIN2cv15ImageCollection4ImplELN9__gnu_cxx12_Lock_policyE2EE3getEv(ptr noundef nonnull align 8 dereferenceable(16) %0) #9 comdat align 2 {
  %2 = alloca ptr, align 8
  store ptr %0, ptr %2, align 8, !tbaa !191
  %3 = load ptr, ptr %2, align 8
  %4 = getelementptr inbounds nuw %"class.std::__shared_ptr.27", ptr %3, i32 0, i32 0
  %5 = load ptr, ptr %4, align 8, !tbaa !1209
  ret ptr %5
}

; Function Attrs: mustprogress uwtable
define noundef zeroext i1 @_ZN2cv15ImageCollection4Impl7advanceEv(ptr noundef nonnull align 8 dereferenceable(104) %0) #5 align 2 {
  %2 = alloca ptr, align 8
  store ptr %0, ptr %2, align 8, !tbaa !132
  %3 = load ptr, ptr %2, align 8
  %4 = getelementptr inbounds nuw %"class.cv::ImageCollection::Impl", ptr %3, i32 0, i32 5
  %5 = load i32, ptr %4, align 8, !tbaa !145
  %6 = add nsw i32 %5, 1
  store i32 %6, ptr %4, align 8, !tbaa !145
  %7 = getelementptr inbounds nuw %"class.cv::ImageCollection::Impl", ptr %3, i32 0, i32 7
  %8 = call noundef ptr @_ZNK2cv3PtrINS_16BaseImageDecoderEEptEv(ptr noundef nonnull align 8 dereferenceable(16) %7) #3
  %9 = load ptr, ptr %8, align 8, !tbaa !14
  %10 = getelementptr inbounds ptr, ptr %9, i64 9
  %11 = load ptr, ptr %10, align 8
  %12 = call noundef zeroext i1 %11(ptr noundef nonnull align 8 dereferenceable(368) %8)
  ret i1 %12
}

; Function Attrs: mustprogress nounwind uwtable
define noundef i32 @_ZNK2cv15ImageCollection4Impl12currentIndexEv(ptr noundef nonnull align 8 dereferenceable(104) %0) #9 align 2 {
  %2 = alloca ptr, align 8
  store ptr %0, ptr %2, align 8, !tbaa !132
  %3 = load ptr, ptr %2, align 8
  %4 = getelementptr inbounds nuw %"class.cv::ImageCollection::Impl", ptr %3, i32 0, i32 5
  %5 = load i32, ptr %4, align 8, !tbaa !145
  ret i32 %5
}

; Function Attrs: mustprogress nounwind uwtable
define linkonce_odr hidden noundef ptr @_ZNK2cv3PtrINS_15ImageCollection4ImplEEptEv(ptr noundef nonnull align 8 dereferenceable(16) %0) #9 comdat align 2 {
  %2 = alloca ptr, align 8
  store ptr %0, ptr %2, align 8, !tbaa !184
  %3 = load ptr, ptr %2, align 8
  %4 = call noundef ptr @_ZNKSt12__shared_ptrIN2cv15ImageCollection4ImplELN9__gnu_cxx12_Lock_policyE2EE3getEv(ptr noundef nonnull align 8 dereferenceable(16) %3) #3
  ret ptr %4
}

; Function Attrs: mustprogress uwtable
define noundef nonnull align 8 dereferenceable(12) ptr @_ZN2cv15ImageCollection8iteratorppEv(ptr noundef nonnull align 8 dereferenceable(12) %0) #5 align 2 {
  %2 = alloca ptr, align 8
  store ptr %0, ptr %2, align 8, !tbaa !186
  %3 = load ptr, ptr %2, align 8
  %4 = getelementptr inbounds nuw %"struct.cv::ImageCollection::iterator", ptr %3, i32 0, i32 0
  %5 = load ptr, ptr %4, align 8, !tbaa !188
  %6 = getelementptr inbounds nuw %"class.cv::ImageCollection", ptr %5, i32 0, i32 0
  %7 = call noundef ptr @_ZNK2cv3PtrINS_15ImageCollection4ImplEEptEv(ptr noundef nonnull align 8 dereferenceable(16) %6) #3
  %8 = call noundef i32 @_ZNK2cv15ImageCollection4Impl12currentIndexEv(ptr noundef nonnull align 8 dereferenceable(104) %7)
  %9 = getelementptr inbounds nuw %"struct.cv::ImageCollection::iterator", ptr %3, i32 0, i32 1
  %10 = load i32, ptr %9, align 8, !tbaa !190
  %11 = icmp eq i32 %8, %10
  br i1 %11, label %12, label %18

12:                                               ; preds = %1
  %13 = getelementptr inbounds nuw %"struct.cv::ImageCollection::iterator", ptr %3, i32 0, i32 0
  %14 = load ptr, ptr %13, align 8, !tbaa !188
  %15 = getelementptr inbounds nuw %"class.cv::ImageCollection", ptr %14, i32 0, i32 0
  %16 = call noundef ptr @_ZNK2cv3PtrINS_15ImageCollection4ImplEEptEv(ptr noundef nonnull align 8 dereferenceable(16) %15) #3
  %17 = call noundef zeroext i1 @_ZN2cv15ImageCollection4Impl7advanceEv(ptr noundef nonnull align 8 dereferenceable(104) %16)
  br label %18

18:                                               ; preds = %12, %1
  %19 = getelementptr inbounds nuw %"struct.cv::ImageCollection::iterator", ptr %3, i32 0, i32 1
  %20 = load i32, ptr %19, align 8, !tbaa !190
  %21 = add nsw i32 %20, 1
  store i32 %21, ptr %19, align 8, !tbaa !190
  ret ptr %3
}

; Function Attrs: mustprogress uwtable
define { ptr, i32 } @_ZN2cv15ImageCollection8iteratorppEi(ptr noundef nonnull align 8 dereferenceable(12) %0, i32 noundef %1) #5 align 2 {
  %3 = alloca %"struct.cv::ImageCollection::iterator", align 8
  %4 = alloca ptr, align 8
  %5 = alloca i32, align 4
  store ptr %0, ptr %4, align 8, !tbaa !186
  store i32 %1, ptr %5, align 4, !tbaa !10
  %6 = load ptr, ptr %4, align 8
  call void @llvm.memcpy.p0.p0.i64(ptr align 8 %3, ptr align 8 %6, i64 16, i1 false), !tbaa.struct !193
  %7 = call noundef nonnull align 8 dereferenceable(12) ptr @_ZN2cv15ImageCollection8iteratorppEv(ptr noundef nonnull align 8 dereferenceable(12) %6)
  %8 = load { ptr, i32 }, ptr %3, align 8
  ret { ptr, i32 } %8
}