; Function Attrs: mustprogress uwtable
define { ptr, i32 } @_ZN2cv15ImageCollection8iteratorppEi(ptr noundef nonnull align 8 captures(none) dereferenceable(12) %0, i32 noundef %1) local_unnamed_addr #4 align 2 {
  %.sroa.0.0.copyload = load ptr, ptr %0, align 8, !tbaa !281
  %.sroa.2.0..0..sroa_idx = getelementptr inbounds nuw i8, ptr %0, i64 8
  %.sroa.2.0.copyload = load i32, ptr %.sroa.2.0..0..sroa_idx, align 8, !tbaa !21
  %3 = load ptr, ptr %.sroa.0.0.copyload, align 8, !tbaa !128
  %4 = getelementptr inbounds nuw i8, ptr %3, i64 56
  %5 = load i32, ptr %4, align 8, !tbaa !264
  %6 = icmp eq i32 %5, %.sroa.2.0.copyload
  br i1 %6, label %7, label %_ZN2cv15ImageCollection8iteratorppEv.exit

7:                                                ; preds = %2
  %8 = add nsw i32 %.sroa.2.0.copyload, 1
  store i32 %8, ptr %4, align 8, !tbaa !264
  %9 = getelementptr inbounds nuw i8, ptr %3, i64 88
  %10 = load ptr, ptr %9, align 8, !tbaa !14
  %11 = load ptr, ptr %10, align 8, !tbaa !25
  %12 = getelementptr inbounds nuw i8, ptr %11, i64 72
  %13 = load ptr, ptr %12, align 8
  %14 = tail call noundef zeroext i1 %13(ptr noundef nonnull align 8 dereferenceable(368) %10)
  %.pre.i = load i32, ptr %.sroa.2.0..0..sroa_idx, align 8, !tbaa !274
  br label %_ZN2cv15ImageCollection8iteratorppEv.exit

_ZN2cv15ImageCollection8iteratorppEv.exit:        ; preds = %2, %7
  %15 = phi i32 [ %.pre.i, %7 ], [ %.sroa.2.0.copyload, %2 ]
  %16 = add nsw i32 %15, 1
  store i32 %16, ptr %.sroa.2.0..0..sroa_idx, align 8, !tbaa !274
  %.fca.0.insert = insertvalue { ptr, i32 } poison, ptr %.sroa.0.0.copyload, 0
  %.fca.1.insert = insertvalue { ptr, i32 } %.fca.0.insert, i32 %.sroa.2.0.copyload, 1
  ret { ptr, i32 } %.fca.1.insert
}